; Function Attrs: nofree norecurse nosync nounwind memory(argmem: readwrite) uwtable
define internal fastcc void @scale16le(ptr noundef readonly captures(none) %0, ptr noundef writeonly captures(none) %1, ptr noundef readonly captures(address_is_null) %2, i32 noundef %3, i32 noundef range(i32 0, 2) %4) unnamed_addr #5 {
  %.not = icmp eq i32 %4, 0
  br i1 %.not, label %.preheader, label %24

.preheader:                                       ; preds = %5
  %6 = icmp sgt i32 %3, 1
  br i1 %6, label %.lr.ph28, label %.loopexit

.lr.ph28:                                         ; preds = %.preheader
  %7 = getelementptr inbounds nuw i8, ptr %0, i64 648
  %8 = zext nneg i32 %3 to i64
  br label %9

9:                                                ; preds = %.lr.ph28, %9
  %indvars.iv31 = phi i64 [ 0, %.lr.ph28 ], [ %indvars.iv.next32, %9 ]
  %10 = getelementptr inbounds nuw i8, ptr %2, i64 %indvars.iv31
  %11 = load i16, ptr %10, align 1, !tbaa !62
  %12 = zext i16 %11 to i32
  %13 = load i32, ptr %7, align 8, !tbaa !28
  %14 = sub nsw i32 16, %13
  %15 = shl i32 %12, %14
  %16 = shl nsw i32 %13, 1
  %17 = add nsw i32 %16, -16
  %18 = lshr i32 %12, %17
  %19 = or i32 %18, %15
  %20 = trunc i32 %19 to i16
  %21 = getelementptr inbounds nuw i8, ptr %1, i64 %indvars.iv31
  store i16 %20, ptr %21, align 1, !tbaa !62
  %indvars.iv.next32 = add nuw nsw i64 %indvars.iv31, 2
  %22 = or disjoint i64 %indvars.iv.next32, 1
  %23 = icmp samesign ult i64 %22, %8
  br i1 %23, label %9, label %.loopexit, !llvm.loop !81

24:                                               ; preds = %5
  %25 = shl nsw i32 %3, 3
  %or.cond.i = icmp ult i32 %25, 2147483135
  %26 = icmp ne ptr %2, null
  %or.cond3.i = and i1 %26, %or.cond.i
  %27 = add nuw nsw i32 %25, 8
  %28 = select i1 %or.cond3.i, i32 %27, i32 8
  %29 = getelementptr inbounds nuw i8, ptr %0, i64 112
  %30 = getelementptr inbounds nuw i8, ptr %0, i64 116
  %31 = load i32, ptr %29, align 8, !tbaa !49
  %32 = load i32, ptr %30, align 4, !tbaa !50
  %33 = mul nsw i32 %32, %31
  %34 = icmp sgt i32 %33, 0
  br i1 %34, label %.lr.ph, label %.loopexit

.lr.ph:                                           ; preds = %24
  %35 = getelementptr inbounds nuw i8, ptr %0, i64 648
  br label %36

36:                                               ; preds = %.lr.ph, %36
  %indvars.iv = phi i64 [ 0, %.lr.ph ], [ %indvars.iv.next, %36 ]
  %.sroa.5.025 = phi i32 [ 0, %.lr.ph ], [ %48, %36 ]
  %37 = load i32, ptr %35, align 8, !tbaa !28
  %38 = lshr i32 %.sroa.5.025, 3
  %39 = zext nneg i32 %38 to i64
  %40 = getelementptr inbounds nuw i8, ptr %2, i64 %39
  %41 = load i32, ptr %40, align 1, !tbaa !62
  %42 = tail call i32 @llvm.bswap.i32(i32 %41)
  %43 = and i32 %.sroa.5.025, 7
  %44 = shl i32 %42, %43
  %45 = sub nsw i32 32, %37
  %46 = lshr i32 %44, %45
  %47 = add i32 %37, %.sroa.5.025
  %48 = tail call i32 @llvm.umin.i32(i32 %28, i32 %47)
  %49 = sub nsw i32 16, %37
  %50 = shl i32 %46, %49
  %51 = shl nsw i32 %37, 1
  %52 = add nsw i32 %51, -16
  %53 = ashr i32 %46, %52
  %54 = or i32 %50, %53
  %55 = trunc i32 %54 to i16
  %56 = shl nuw nsw i64 %indvars.iv, 1
  %57 = getelementptr inbounds nuw i8, ptr %1, i64 %56
  store i16 %55, ptr %57, align 1, !tbaa !62
  %indvars.iv.next = add nuw nsw i64 %indvars.iv, 1
  %58 = load i32, ptr %29, align 8, !tbaa !49
  %59 = load i32, ptr %30, align 4, !tbaa !50
  %60 = mul nsw i32 %59, %58
  %61 = sext i32 %60 to i64
  %62 = icmp slt i64 %indvars.iv.next, %61
  br i1 %62, label %36, label %.loopexit, !llvm.loop !82

.loopexit:                                        ; preds = %36, %9, %24, %.preheader
  ret void
}